; Function Attrs: mustprogress nounwind willreturn uwtable
define void @PMIx_Net_stats_destruct(ptr noundef captures(none) %0) local_unnamed_addr #16 {
  %2 = load ptr, ptr %0, align 8, !tbaa !68
  %.not.i = icmp eq ptr %2, null
  br i1 %.not.i, label %pmix_bfrops_base_tma_net_stats_destruct.exit, label %3

3:                                                ; preds = %1
  tail call void @free(ptr noundef nonnull %2) #44
  store ptr null, ptr %0, align 8, !tbaa !68
  br label %pmix_bfrops_base_tma_net_stats_destruct.exit

pmix_bfrops_base_tma_net_stats_destruct.exit:     ; preds = %1, %3
  ret void
}